(dp0
S'class_sl'
p1
(dp2
S'CR'
p3
(I0
I8
tp4
sS'HA'
p5
(I8
I16
tp6
ssS'class_hierarchy'
p7
(dp8
g3
(lp9
S'CR_subcl'
p10
asg5
(lp11
S'HA_subcl'
p12
assS'feats'
p13
(dp14
S'k__Bacteria.p__Firmicutes.c__Clostridia.o__Clostridiales'
p15
(lp16
F175408.8435872817
aF113644.36823715639
aF143821.29621883263
aF93380.0929919718
aF121838.76981375163
aF119445.94484496146
aF181650.5968390222
aF119788.53348003858
aF101984.01076241404
aF143553.34323839686
aF170965.1343162617
aF103409.29789580355
aF115545.55524913057
aF173184.38415403455
aF149621.96992011112
aF140567.85096771905
asS'k__Bacteria.p__Proteobacteria.c__Alphaproteobacteria.o__Rickettsiales'
p17
(lp18
F3.3388313725398016
aF23.233034294958784
aF50.74468378078906
aF3.836960435627671
aF37.06008965057923
aF167.74019881271488
aF392.3781223119793
aF15.280122268380868
aF11.330717074689318
aF0.0
aF61.22717566989924
aF26.69774552977691
aF8.269793962343721
aF0.0
aF0.0
aF149.47944473366638
asS'k__Bacteria.p__Proteobacteria.c__Alphaproteobacteria.o__Rhizobiales'
p19
(lp20
F3.3388313725398016
aF0.0
aF0.0
aF11.510879202732559
aF3.7060089650579235
aF11.182681349099592
aF16.34908484418869
aF0.0
aF0.0
aF0.0
aF14.12935094187958
aF4.449625025638014
aF0.0
aF4.531961711901307
aF3.812704590153805
aF17.58581841863184
asS'k__Bacteria.p__Proteobacteria.c__Gammaproteobacteria.o__Pseudomonadales'
p21
(lp22
F10.016494117619406
aF7.744344053552123
aF18.123097764269442
aF0.0
aF7.412020157872428
aF14.910241084673489
aF16.34908484418869
aF7.640061134190434
aF3.7769063963840543
aF4.3357808858289735
aF14.12935094187958
aF13.348877388939627
aF16.539587924687442
aF13.59588513570392
aF0.0
aF562.7461893962188
asS'k__Archaea.p__Crenarchaeota'
p23
(lp24
F0.0
aF0.0
aF0.0
aF0.0
aF3.7060089650579235
aF0.0
aF12.261815425880075
aF0.0
aF0.0
aF0.0
aF0.0
aF0.0
aF0.0
aF0.0
aF0.0
aF149.47944473366638
asS'k__Bacteria.p__Firmicutes.c__Clostridia.o__Clostridiales.f___Mogibacteriaceae_'
p25
(lp26
F807.997162978188
aF971.9151328332895
aF308.0926766354644
aF329.97855538097065
aF355.7769363892844
aF339.20796378813736
aF228.88720216055012
aF764.0061562759682
aF415.45961902373216
aF620.0165789769234
aF475.68812488678793
aF498.3580861043787
aF897.272644914294
aF1432.0999390452448
aF968.4269616123665
aF1362.9009156192635
asS'k__Bacteria.p__Firmicutes.c__Bacilli.o__Bacillales.f__Planococcaceae.g__Sporosarcina'
p27
(lp28
F0.0
aF0.0
aF0.0
aF0.0
aF0.0
aF0.0
aF0.0
aF0.0
aF0.0
aF0.0
aF0.0
aF0.0
aF0.0
aF0.0
aF0.0
aF0.0
asS'k__Bacteria.p__Firmicutes.c__Erysipelotrichi.o__Erysipelotrichales'
p29
(lp30
F1909.8114533953712
aF2695.031679412881
aF1718.0698496245027
aF1124.2292813898805
aF1219.277241340169
aF1602.8508791107868
aF4696.274896977359
aF2078.096714213648
aF857.357593394467
aF459.5925985046316
aF362.65327708348065
aF747.5370597958004
aF396.95020099152765
aF226.59808559506533
aF2405.8165042230007
aF1437.6406852849136
asS'k__Bacteria.p__Bacteroidetes.c__Bacteroidia.o__Bacteroidales.f___Paraprevotellaceae_.g__CF231'
p31
(lp32
F100.16494117619405
aF1699.8834482555603
aF39.87081549976089
aF502.6417539427113
aF14620.208452596373
aF2818.0354557420164
aF1189.3959815750995
aF1848.8948801879349
aF185.06838170587596
aF4652.292272002539
aF8538.837161941256
aF12587.99150261945
aF15468.649470365388
aF9798.10148772165
aF335.5179953601349
aF5768.148417661835
asS'k__Bacteria.p__Bacteroidetes.c__Bacteroidia.o__Bacteroidales.f___Odoribacteraceae_.g__Butyricimonas'
p33
(lp34
F3.3388313725398016
aF0.0
aF0.0
aF23.021762613766025
aF48.178132140049065
aF272.11198709719076
aF568.1308005216548
aF45.8403668051426
aF56.65358537344659
aF21.678902121339085
aF23.54891739754366
aF0.0
aF53.75366075523419
aF9.063923423802613
aF110.56843954451037
aF8.79290920931592
asS'k__Bacteria.p__Proteobacteria.c__Gammaproteobacteria.o__Xanthomonadales'
p35
(lp36
F3.3388313725398016
aF11.616515013176977
aF10.873859913665994
aF0.0
aF3.7060089650579235
aF11.182681349099592
aF69.4836064047453
aF3.820030567095217
aF45.32287675660866
aF8.671559463852162
aF174.2619731378682
aF4.449625025638014
aF0.0
aF0.0
aF0.0
aF153.87591707538073
asS'k__Bacteria.p__Firmicutes.c__Clostridia.o__Clostridiales.f__Clostridiaceae'
p37
(lp38
F330.5443100495038
aF11411.290524309907
aF3138.920744465731
aF682.9788312926983
aF2242.135858272577
aF5952.913435448367
aF2709.8610561391397
aF26388.772400344576
aF2001.7600729141218
aF1751.6552840192194
aF7865.33805339868
aF4823.394480346148
aF1910.3223599018854
aF6766.218950121946
aF1498.3928417732952
aF7619.055682063442
asS'k__Bacteria.p__Firmicutes.c__Clostridia.o__Clostridiales.f__Clostridiaceae.g__CandidatusArthromitus'
p39
(lp40
F43.40481617914426
aF991.2759022593173
aF246.4740409000253
aF19.1848000739879
aF29.64807617597655
aF3.7275597355738963
aF16.34908484418869
aF129.88103928123738
aF105.75335795412505
aF13.007340349681137
aF353.2337735469895
aF31.14737749149168
aF74.42814566109351
aF27.191760750299853
aF30.501628147830413
aF650.6751632423354
asS'k__Bacteria.p__Firmicutes.c__Bacilli.o__Lactobacillales.f__Streptococcaceae.g__Lactococcus'
p41
(lp42
F0.0
aF0.0
aF3.624619971221998
aF3.836960435627671
aF3.7060089650579235
aF0.0
aF32.69816490774122
aF0.0
aF0.0
aF0.0
aF18.839132911328164
aF0.0
aF0.0
aF0.0
aF0.0
aF26.3787158032435
asS'k__Bacteria.p__Firmicutes.c__Erysipelotrichi.o__Erysipelotrichales.f__Erysipelotrichaceae.g___Eubacterium_'
p43
(lp44
F93.48726592692418
aF3.8721709596248544
aF39.87081549976089
aF65.22832740567041
aF7.412020157872428
aF44.73072968115418
aF0.0
aF320.8826533498479
aF45.32287675660866
aF0.0
aF0.0
aF0.0
aF78.56304264226536
aF13.59588513570392
aF141.07006769234079
aF39.56808552956951
asS'k__Bacteria.p__Firmicutes.c__Bacilli.o__Lactobacillales.f__Enterococcaceae.g__Vagococcus'
p45
(lp46
F0.0
aF0.0
aF3.624619971221998
aF0.0
aF0.0
aF0.0
aF0.0
aF0.0
aF3.7769063963840543
aF4.3357808858289735
aF14.12935094187958
aF4.449625025638014
aF0.0
aF0.0
aF0.0
aF8.79290920931592
asS'k__Bacteria.p__Verrucomicrobia.c__Verrucomicrobiae.o__Verrucomicrobiales.f__Verrucomicrobiaceae'
p47
(lp48
F0.0
aF0.0
aF0.0
aF0.0
aF0.0
aF0.0
aF0.0
aF0.0
aF0.0
aF0.0
aF0.0
aF0.0
aF0.0
aF0.0
aF0.0
aF4.396453422187535
asS'k__Bacteria.p__Bacteroidetes.c__Bacteroidia.o__Bacteroidales.f__Porphyromonadaceae.g__Parabacteroides'
p49
(lp50
F26.710659316445255
aF3.8721709596248544
aF3.624619971221998
aF145.80447551234695
aF385.4250571203925
aF1125.7231815402583
aF666.2251518257939
aF1910.0152835476085
aF400.3519722935675
aF299.16894112514956
aF277.8772419016769
aF88.99252363301613
aF169.5307762280463
aF13.59588513570392
aF621.47076460442
aF74.73972236683319
asS'k__Bacteria.p__Verrucomicrobia.c__Verrucomicrobiae'
p51
(lp52
F0.0
aF0.0
aF0.0
aF0.0
aF0.0
aF0.0
aF0.0
aF0.0
aF0.0
aF0.0
aF0.0
aF0.0
aF0.0
aF0.0
aF0.0
aF4.396453422187535
asS'k__Bacteria.p__Firmicutes.c__Erysipelotrichi.o__Erysipelotrichales.f__Erysipelotrichaceae.g__Holdemania'
p53
(lp54
F3.3388313725398016
aF11.616515013176977
aF616.1853114341178
aF168.82623812611297
aF174.18245031855795
aF7.455119471147793
aF151.22904257727913
aF248.3020940035012
aF117.08406657096299
aF26.014671468139134
aF9.419566455664082
aF53.39551417980969
aF33.079175849374884
aF4.531961711901307
aF102.94302179080275
aF4.396453422187535
asS'k__Bacteria.p__Firmicutes.c__Clostridia.o__Clostridiales.f__Lachnospiraceae'
p55
(lp56
F155546.1332470363
aF52061.35152871485
aF57127.63188979092
aF36815.630329886415
aF55126.89477248908
aF75706.74622057543
aF87210.10965043938
aF58201.988205964364
aF56513.83840951795
aF48677.80660032074
aF39048.814031798494
aF14283.298713684379
aF46343.92427538587
aF49053.95515012367
aF79498.70361720194
aF31280.774659950188
asS'k__Bacteria.p__Bacteroidetes.c__Bacteroidia.o__Bacteroidales'
p57
(lp58
F20777.54607662753
aF67100.86715567468
aF58041.044523370496
aF112108.29452162197
aF91679.26755955593
aF78133.37910962087
aF42070.29134598315
aF85263.08054328825
aF90188.73351376905
aF74761.8530181385
aF56253.641561188306
aF64234.798772418086
aF78567.1739980844
aF39777.02311815602
aF47609.247766383734
aF48391.77444406742
asS'k__Bacteria.p__Firmicutes.c__Erysipelotrichi'
p59
(lp60
F1909.8114533953712
aF2695.031679412881
aF1718.0698496245027
aF1124.2292813898805
aF1219.277241340169
aF1602.8508791107868
aF4696.274896977359
aF2078.096714213648
aF857.357593394467
aF459.5925985046316
aF362.65327708348065
aF747.5370597958004
aF396.95020099152765
aF226.59808559506533
aF2405.8165042230007
aF1437.6406852849136
asS'k__Bacteria.p__Proteobacteria.c__Gammaproteobacteria.o__Xanthomonadales.f__Xanthomonadaceae.g__Stenotrophomonas'
p61
(lp62
F3.3388313725398016
aF0.0
aF10.873859913665994
aF0.0
aF3.7060089650579235
aF11.182681349099592
aF69.4836064047453
aF3.820030567095217
aF41.54595978791037
aF8.671559463852162
aF4.709784486215498
aF0.0
aF0.0
aF0.0
aF0.0
aF21.982271840819376
asS'k__Bacteria.p__Firmicutes.c__Clostridia.o__Clostridiales.f__Ruminococcaceae'
p63
(lp64
F7635.906777973837
aF22555.401815861536
aF13556.07852502303
aF22308.0852794267
aF23818.525083114168
aF20661.865904488088
aF30903.85830139495
aF13828.511081453933
aF14733.708204845787
aF46271.44827791984
aF41691.00151028426
aF38155.54089511569
aF26273.13487357183
aF60243.368340695866
aF15166.938358087937
aF52361.77463709391
asS'k__Bacteria.p__Fusobacteria.c__Fusobacteriia'
p65
(lp66
F0.0
aF3.8721709596248544
aF0.0
aF0.0
aF0.0
aF0.0
aF0.0
aF0.0
aF3.7769063963840543
aF0.0
aF0.0
aF0.0
aF0.0
aF0.0
aF0.0
aF628.6930380278488
asS'k__Bacteria.p__Proteobacteria.c__Alphaproteobacteria.o__Sphingomonadales.f__Sphingomonadaceae.g__Sphingomonas'
p67
(lp68
F3.3388313725398016
aF3.8721709596248544
aF0.0
aF0.0
aF0.0
aF0.0
aF4.087271808626691
aF0.0
aF0.0
aF0.0
aF0.0
aF0.0
aF4.1348969811718606
aF4.531961711901307
aF0.0
aF35.17163683726368
asS'k__Bacteria.p__Firmicutes.c__Clostridia.o__Clostridiales.f__Peptococcaceae'
p69
(lp70
F3.3388313725398016
aF538.2317975366934
aF14.498479884887992
aF69.06528784129807
aF1523.1699720194053
aF465.94491338728943
aF502.73432728708764
aF84.04067247609477
aF64.2073981662147
aF585.3303965088536
aF4511.971640152193
aF2371.6504137961065
aF731.876720267905
aF1146.5863321532465
aF167.75899768006744
aF1442.0371103278108
asS'k__Bacteria.p__Actinobacteria.c__Coriobacteriia'
p71
(lp72
F166.9415686269901
aF731.840473576081
aF1837.6822124501637
aF122.78271289858094
aF315.010817723838
aF454.76234344184087
aF707.0979655247838
aF309.42249736317495
aF1110.4102479459991
aF108.3944990676665
aF141.2935094187958
aF124.5895330862226
aF86.83283660460908
aF185.81044446961553
aF449.899133064749
aF2985.192658825699
asS'k__Bacteria.p__Firmicutes.c__Bacilli.o__Lactobacillales.f__Streptococcaceae'
p73
(lp74
F794.6418541602825
aF27.10519244876916
aF304.4680608479234
aF46.04352522753205
aF44.47212540274772
aF59.64095148442654
aF388.2907740131742
aF114.6009170128565
aF33.992146995142264
aF147.41654088696197
aF183.68155217736688
aF48.945882218094916
aF62.02345471757792
aF31.723736743863142
aF41.93974406164184
aF641.8823604553579
asS'k__Bacteria.p__Fusobacteria.c__Fusobacteriia.o__Fusobacteriales.f__Fusobacteriaceae'
p75
(lp76
F0.0
aF3.8721709596248544
aF0.0
aF0.0
aF0.0
aF0.0
aF0.0
aF0.0
aF3.7769063963840543
aF0.0
aF0.0
aF0.0
aF0.0
aF0.0
aF0.0
aF628.6930380278488
asS'k__Bacteria.p__Bacteroidetes.c__Bacteroidia'
p77
(lp78
F20777.54607662753
aF67100.86715567468
aF58041.044523370496
aF112108.29452162197
aF91679.26755955593
aF78133.37910962087
aF42070.29134598315
aF85263.08054328825
aF90188.73351376905
aF74761.8530181385
aF56253.641561188306
aF64234.798772418086
aF78567.1739980844
aF39777.02311815602
aF47609.247766383734
aF48391.77444406742
asS'k__Bacteria.p__Proteobacteria.c__Deltaproteobacteria.o__Desulfovibrionales'
p79
(lp80
F83.47078431349505
aF61.95474389120733
aF746.6716680512395
aF257.0763071040449
aF37.06008965057923
aF55.913406745497966
aF1500.0286199081836
aF1845.0748496208396
aF759.1580270884815
aF2393.350721269172
aF4163.448448906532
aF1681.9585695025978
aF930.3518207636687
aF3208.628982476651
aF1120.9351452185188
aF681.450469634336
asS'k__Bacteria.p__Firmicutes.c__Bacilli.o__Lactobacillales.f__Lactobacillaceae.g__Lactobacillus'
p81
(lp82
F5161.833110215616
aF22683.182714791918
aF855.410288106305
aF1093.5335137388408
aF2827.685412872637
aF3041.6890184526715
aF2301.1338752764705
aF1959.6757452052334
aF12410.911986885729
aF7310.125521148211
aF14138.769438709303
aF57969.725478577835
aF28282.69512421796
aF19342.41317670347
aF6813.303079028
aF32714.01868369812
asS'k__Bacteria.p__Cyanobacteria'
p83
(lp84
F83.47078431349505
aF151.01470157420795
aF235.60023537421347
aF38.36960435627671
aF285.3626969927298
aF1409.0177385828977
aF2190.7774312695547
aF145.16116154961824
aF33.992146995142264
aF30.35046158519125
aF466.26857101495847
aF84.54289167130138
aF128.18180641632767
aF18.127846847605227
aF15.25081836061522
aF1125.4923787924376
asS'k__Bacteria.p__Firmicutes.c__Clostridia.o__Clostridiales.f__Lachnospiraceae.g___Ruminococcus_'
p85
(lp86
F163.6027414225137
aF394.96154032825103
aF28.99696813713817
aF629.2614272769199
aF218.65457572130563
aF242.29141494797182
aF674.3997767138618
aF6685.053792415103
aF449.4517660188744
aF2597.1323952094644
aF2816.450433162733
aF671.8935014086961
aF930.3518207636687
aF4160.340965778695
aF160.13360135985985
aF3235.7905653788503
asS'k__Bacteria.p__Proteobacteria.c__Betaproteobacteria.o__Burkholderiales.f__Alcaligenaceae'
p87
(lp88
F3736.1522266788324
aF5854.723831294696
aF1098.2597968924113
aF2064.2843777036146
aF3887.604319953716
aF9039.333376396204
aF2570.8936999105645
aF2288.198502546197
aF3674.92923648126
aF845.477111190245
aF2237.1470646798057
aF1468.3764665428473
aF781.4954386424528
aF498.5156930980639
aF5638.9901167010285
aF4677.827699356069
asS'k__Bacteria.p__Proteobacteria.c__Deltaproteobacteria.o__Desulfovibrionales.f__Desulfovibrionaceae'
p89
(lp90
F83.47078431349505
aF61.95474389120733
aF746.6716680512395
aF257.0763071040449
aF37.06008965057923
aF55.913406745497966
aF1500.0286199081836
aF1845.0748496208396
aF759.1580270884815
aF2393.350721269172
aF4163.448448906532
aF1681.9585695025978
aF930.3518207636687
aF3208.628982476651
aF1120.9351452185188
aF681.450469634336
asS'k__Bacteria.p__Firmicutes.c__Bacilli.o__Lactobacillales'
p91
(lp92
F5956.47502689685
aF22718.03245832157
aF1163.5028392313366
aF1139.5771652154003
aF2872.1574491651213
aF3105.0575575235844
aF2689.4245536769213
aF2074.2766622180898
aF12448.680945126429
aF7461.877829074168
aF14346.00002657226
aF58023.121015877914
aF28344.718578935535
aF19374.136794433485
aF6855.242865956641
aF33364.693846940456
asS'k__Bacteria.p__Proteobacteria.c__Deltaproteobacteria.o__Desulfovibrionales.f__Desulfovibrionaceae.g__Desulfovibrio'
p93
(lp94
F46.74364338362065
aF30.977371945603664
aF304.4680190111125
aF164.98927769048532
aF14.824038087988274
aF33.548031193031356
aF1361.0614549050545
aF1753.394008868242
aF642.0739816621469
aF1725.6405433169068
aF3541.7579940364612
aF1521.772003842913
aF525.131871209312
aF2560.559176518417
aF1037.0556142282348
aF558.3497643533216
asS'k__Bacteria.p__Firmicutes.c__Erysipelotrichi.o__Erysipelotrichales.f__Erysipelotrichaceae.g__p_75_a5'
p95
(lp96
F3.3388313725398016
aF205.2251078147704
aF0.0
aF26.8587230493937
aF170.47644358125658
aF100.64411500287311
aF24.523635632396303
aF0.0
aF11.330717074689318
aF82.37982759952736
aF18.839132911328164
aF169.08578334260275
aF78.56304264226536
aF49.851569309806386
aF3.812704590153805
aF4.396453422187535
asS'k__Bacteria.p__Actinobacteria.c__Coriobacteriia.o__Coriobacteriales.f__Coriobacteriaceae.g__Collinsella'
p97
(lp98
F10.016494117619406
aF247.81897556482932
aF1297.6138743912156
aF69.06528784129807
aF259.420694386752
aF137.91973378239112
aF470.03621018570794
aF3.820030567095217
aF880.0189260496289
aF34.68625170224336
aF9.419566455664082
aF4.449625025638014
aF57.88855773640606
aF4.531961711901307
aF312.6416777985117
aF21.982271840819376
asS'k__Bacteria.p__Firmicutes.c__Clostridia'
p99
(lp100
F175408.8435872817
aF113644.36823715639
aF143821.29621883263
aF93380.0929919718
aF121838.76981375163
aF119445.94484496146
aF181650.5968390222
aF119788.53348003858
aF101984.01076241404
aF143553.34323839686
aF170965.1343162617
aF103409.29789580355
aF115545.55524913057
aF173184.38415403455
aF149621.96992011112
aF140567.85096771905
asS'k__Bacteria.p__Tenericutes.c__Mollicutes.o__RF39'
p101
(lp102
F0.0
aF0.0
aF0.0
aF0.0
aF14.824038087988274
aF67.09608380984174
aF4.087271808626691
aF0.0
aF0.0
aF0.0
aF0.0
aF22.248129752241244
aF0.0
aF18.127846847605227
aF0.0
aF30.775188144957852
asS'k__Bacteria.p__Fusobacteria.c__Fusobacteriia.o__Fusobacteriales.f__Fusobacteriaceae.g__Cetobacterium'
p103
(lp104
F0.0
aF3.8721709596248544
aF0.0
aF0.0
aF0.0
aF0.0
aF0.0
aF0.0
aF3.7769063963840543
aF0.0
aF0.0
aF0.0
aF0.0
aF0.0
aF0.0
aF628.6930380278488
asS'k__Bacteria.p__Verrucomicrobia'
p105
(lp106
F0.0
aF0.0
aF0.0
aF0.0
aF0.0
aF0.0
aF0.0
aF0.0
aF0.0
aF0.0
aF0.0
aF0.0
aF0.0
aF0.0
aF0.0
aF4.396453422187535
asS'k__Bacteria.p__Firmicutes.c__Erysipelotrichi.o__Erysipelotrichales.f__Erysipelotrichaceae.g__Allobaculum'
p107
(lp108
F323.86663480023395
aF2238.11533116435
aF619.8099690584696
aF755.8811006111285
aF166.77043684395525
aF1006.4412357238473
aF2885.613638736092
aF1176.5694575222515
aF219.06052870101826
aF190.77432666719386
aF42.388042758571075
aF204.68279279580918
aF20.674484905859305
aF27.191760750299853
aF625.283548498524
aF602.3142749257884
asS'k__Bacteria.p__Actinobacteria.c__Actinobacteria.o__Actinomycetales.f__Micrococcaceae'
p109
(lp110
F113.52027083441668
aF15.488688107104245
aF43.49543128730179
aF7.673920871255342
aF3.7060089650579235
aF3.7275597355738963
aF24.523635632396303
aF11.46009170128565
aF3.7769063963840543
aF4.3357808858289735
aF9.419566455664082
aF40.046641414921226
aF24.80938188703117
aF4.531961711901307
aF7.62540918030761
aF4.396453422187535
asS'k__Bacteria.p__Firmicutes.c__Clostridia.o__Clostridiales.f__Lachnospiraceae.g__Dorea'
p111
(lp112
F100.16494117619405
aF468.53280136693775
aF210.2279457798326
aF337.65247625222594
aF511.4293530213356
aF436.12453405208186
aF2893.788168011437
aF1325.5506710674274
aF664.7353988958229
aF659.0385977181611
aF503.94681166994565
aF698.5912469384731
aF938.6216147260125
aF697.9221131539092
aF693.9122439813925
aF905.6696367348354
asS'k__Bacteria.p__Actinobacteria'
p113
(lp114
F280.46181862108966
aF747.3291702203949
aF1895.6761278060344
aF130.45663376983626
aF318.7168467387051
aF477.1276975705285
aF735.7088538432622
aF320.88258906446066
aF1117.964060738767
aF112.73028918471861
aF178.97177524145212
aF164.63615138088795
aF115.77711547281211
aF190.3423966604089
aF457.5245508184567
aF3002.77847724433
asS'k__Bacteria.p__Firmicutes.c__Bacilli.o__Lactobacillales.f__Lactobacillaceae'
p115
(lp116
F5161.833110215616
aF22683.182714791918
aF855.410288106305
aF1093.5335137388408
aF2827.685412872637
aF3041.6890184526715
aF2301.1338752764705
aF1959.6757452052334
aF12410.911986885729
aF7310.125521148211
aF14138.769438709303
aF57969.725478577835
aF28282.69512421796
aF19342.41317670347
aF6813.303079028
aF32714.01868369812
asS'k__Bacteria.p__Proteobacteria.c__Gammaproteobacteria.o__Pseudomonadales.f__Moraxellaceae.g__Psychrobacter'
p117
(lp118
F10.016494117619406
aF0.0
aF14.498479884887992
aF0.0
aF0.0
aF11.182681349099592
aF16.34908484418869
aF3.820030567095217
aF0.0
aF4.3357808858289735
aF0.0
aF13.348877388939627
aF4.1348969811718606
aF0.0
aF0.0
aF0.0
asS'k__Bacteria.p__Firmicutes.c__Erysipelotrichi.o__Erysipelotrichales.f__Erysipelotrichaceae'
p119
(lp120
F1909.8114533953712
aF2695.031679412881
aF1718.0698496245027
aF1124.2292813898805
aF1219.277241340169
aF1602.8508791107868
aF4696.274896977359
aF2078.096714213648
aF857.357593394467
aF459.5925985046316
aF362.65327708348065
aF747.5370597958004
aF396.95020099152765
aF226.59808559506533
aF2405.8165042230007
aF1437.6406852849136
asS'k__Bacteria.p__Proteobacteria'
p121
(lp122
F3923.1267585326814
aF5986.377635384732
aF2022.5378686356153
aF2394.2629330845853
aF4087.728817433383
aF9423.271919899042
aF4749.409516540958
aF4389.215314448566
aF4653.147834560016
aF3390.580255775663
aF7394.359856453822
aF3359.467507043481
aF1852.4338929645082
aF3870.295406695904
aF6950.560427126737
aF6968.380518821105
asS'k__Bacteria.p__Proteobacteria.c__Betaproteobacteria.o__Burkholderiales'
p123
(lp124
F3789.573461950455
aF5862.468147602317
aF1192.4999328789074
aF2075.7953431765154
aF3932.0763562462007
aF9069.15377715519
aF2615.853670682913
aF2295.8383922526878
aF3724.0289667726815
aF897.5065925948703
aF2392.570005577022
aF1588.5164832686344
aF810.4398991087138
aF516.643644677857
aF5760.99667215935
aF4765.756673202186
asS'k__Bacteria.p__Firmicutes.c__Clostridia.o__Clostridiales.f__Dehalobacteriaceae.g__Dehalobacterium'
p125
(lp126
F0.0
aF0.0
aF0.0
aF0.0
aF0.0
aF0.0
aF0.0
aF0.0
aF0.0
aF0.0
aF65.93697777348314
aF0.0
aF0.0
aF27.191760750299853
aF0.0
aF101.11846181948522
asS'k__Bacteria.p__Firmicutes.c__Clostridia.o__Clostridiales.f__Lachnospiraceae.g__Roseburia'
p127
(lp128
F260.42883455391427
aF1781.199068287916
aF108.73859913665993
aF16756.00399198656
aF2571.9707697783174
aF421.2142908250305
aF2775.257290341899
aF714.3457374752679
aF23084.447179447194
aF2376.007606957079
aF2369.0210202267717
aF3421.762262026464
aF25309.70419475539
aF14284.74372532056
aF39728.38172223515
aF3904.0516652868605
asS'k__Bacteria.p__Bacteroidetes.c__Bacteroidia.o__Bacteroidales.f__Rikenellaceae'
p129
(lp130
F0.0
aF0.0
aF0.0
aF19.1848000739879
aF100.06227101739947
aF387.66628105577814
aF12.261815425880075
aF61.12048907352347
aF37.769063963840544
aF125.7376364578171
aF65.93697777348314
aF53.39551417980969
aF103.37242452929654
aF566.4952139876633
aF61.00327772916091
aF79.13617105913902
asS'k__Bacteria.p__Proteobacteria.c__Alphaproteobacteria.o__Rhizobiales.f__Bradyrhizobiaceae'
p131
(lp132
F3.3388313725398016
aF0.0
aF0.0
aF11.510879202732559
aF3.7060089650579235
aF11.182681349099592
aF16.34908484418869
aF0.0
aF0.0
aF0.0
aF14.12935094187958
aF4.449625025638014
aF0.0
aF4.531961711901307
aF3.812704590153805
aF17.58581841863184
asS'k__Bacteria.p__Bacteroidetes.c__Bacteroidia.o__Bacteroidales.f___Odoribacteraceae_'
p133
(lp134
F3.3388313725398016
aF0.0
aF0.0
aF23.021762613766025
aF48.178132140049065
aF272.11198709719076
aF568.1308005216548
aF45.8403668051426
aF56.65358537344659
aF21.678902121339085
aF23.54891739754366
aF0.0
aF53.75366075523419
aF9.063923423802613
aF110.56843954451037
aF8.79290920931592
asS'k__Bacteria.p__Cyanobacteria.c__Chloroplast.o__Streptophyta'
p135
(lp136
F56.76012499704978
aF151.01470157420795
aF213.85262432258986
aF19.1848000739879
aF200.12451975723314
aF1371.7420769558216
aF2068.1593726234764
aF118.42094757995172
aF15.10762347107337
aF26.014671468139134
aF386.20216176305445
aF71.19401890641291
aF128.18180641632767
aF18.127846847605227
aF15.25081836061522
aF1125.4923787924376
asS'k__Bacteria.p__Firmicutes.c__Bacilli.o__Bacillales.f__Planococcaceae'
p137
(lp138
F0.0
aF0.0
aF0.0
aF0.0
aF0.0
aF0.0
aF8.174543617253383
aF0.0
aF0.0
aF0.0
aF0.0
aF0.0
aF0.0
aF0.0
aF0.0
aF0.0
asS'k__Bacteria.p__Fusobacteria'
p139
(lp140
F0.0
aF3.8721709596248544
aF0.0
aF0.0
aF0.0
aF0.0
aF0.0
aF0.0
aF3.7769063963840543
aF0.0
aF0.0
aF0.0
aF0.0
aF0.0
aF0.0
aF628.6930380278488
asS'k__Bacteria.p__Firmicutes'
p141
(lp142
F183278.45993344206
aF139204.58185479406
aF146710.10709434547
aF95643.90638227358
aF125937.6191464843
aF124224.66872626102
aF189060.8219092729
aF123990.54781822715
aF115290.05056961265
aF151474.8173584649
aF185692.62511693029
aF162202.2126857805
aF144295.50149553793
aF192794.17717817434
aF158894.4664202636
aF175431.73805197992
asS'k__Bacteria.p__Proteobacteria.c__Gammaproteobacteria.o__Pasteurellales'
p143
(lp144
F0.0
aF3.8721709596248544
aF0.0
aF0.0
aF3.7060089650579235
aF0.0
aF0.0
aF0.0
aF0.0
aF0.0
aF0.0
aF0.0
aF4.1348969811718606
aF0.0
aF0.0
aF202.2368999895619
asS'k__Bacteria.p__Cyanobacteria.c__4C0d_2'
p145
(lp146
F26.710659316445255
aF0.0
aF21.747715643650896
aF19.1848000739879
aF85.23822179062829
aF37.27559735573896
aF122.61815425880076
aF26.740213969666517
aF18.884527752994583
aF4.3357808858289735
aF80.0663085812274
aF13.348877388939627
aF0.0
aF0.0
aF0.0
aF0.0
asS'k__Bacteria.p__Proteobacteria.c__Betaproteobacteria'
p147
(lp148
F3789.573461950455
aF5862.468147602317
aF1192.4999328789074
aF2075.7953431765154
aF3932.0763562462007
aF9069.15377715519
aF2615.853670682913
aF2295.8383922526878
aF3724.0289667726815
aF897.5065925948703
aF2392.570005577022
aF1588.5164832686344
aF810.4398991087138
aF516.643644677857
aF5760.99667215935
aF4765.756673202186
asS'k__Bacteria'
p149
(lp150
F1000000.0
aF1000000.0
aF1000000.0
aF1000000.0
aF999981.4699551748
aF1000000.0
aF999938.6909228705
aF1000000.0
aF1000000.0
aF1000000.0
aF1000000.0
aF1000000.0
aF1000000.0
aF1000000.0
aF1000000.0
aF999252.6027763316
asS'k__Bacteria.p__Firmicutes.c__Bacilli.o__Bacillales'
p151
(lp152
F0.0
aF0.0
aF0.0
aF0.0
aF0.0
aF0.0
aF8.174543617253383
aF0.0
aF0.0
aF0.0
aF0.0
aF0.0
aF4.1348969811718606
aF0.0
aF0.0
aF0.0
asS'k__Bacteria.p__Firmicutes.c__Bacilli.o__Turicibacterales.f__Turicibacteraceae'
p153
(lp154
F3.3388313725398016
aF147.14252207737346
aF7.249239942443996
aF0.0
aF7.412020157872428
aF70.82364997254936
aF16.34908484418869
aF49.66039737223782
aF0.0
aF0.0
aF18.839132911328164
aF22.248129752241244
aF4.1348969811718606
aF9.063923423802613
aF11.438113770461417
aF61.55035264050718
asS'k__Bacteria.p__Firmicutes.c__Clostridia.o__Clostridiales.f__Peptostreptococcaceae'
p155
(lp156
F0.0
aF73.57126103868673
aF10.873859913665994
aF15.347839638360231
aF14.824038087988274
aF67.09608380984174
aF28.61088831847838
aF691.4255540726967
aF26.438334202374154
aF8.671559463852162
aF9.419566455664082
aF0.0
aF0.0
aF27.191760750299853
aF3.812704590153805
aF74.73972236683319
asS'k__Bacteria.p__Actinobacteria.c__Actinobacteria.o__Bifidobacteriales.f__Bifidobacteriaceae.g__Bifidobacterium'
p157
(lp158
F0.0
aF0.0
aF14.498479884887992
aF0.0
aF0.0
aF18.637800820247385
aF4.087271808626691
aF0.0
aF3.7769063963840543
aF0.0
aF28.258711950826825
aF0.0
aF4.1348969811718606
aF0.0
aF0.0
aF13.189362631503455
asS'k__Bacteria.p__Bacteroidetes.c__Bacteroidia.o__Bacteroidales.f__Porphyromonadaceae'
p159
(lp160
F26.710659316445255
aF3.8721709596248544
aF3.624619971221998
aF145.80447551234695
aF385.4250571203925
aF1125.7231815402583
aF666.2251518257939
aF1910.0152835476085
aF400.3519722935675
aF299.16894112514956
aF277.8772419016769
aF88.99252363301613
aF169.5307762280463
aF13.59588513570392
aF621.47076460442
aF74.73972236683319
asS'k__Bacteria.p__Proteobacteria.c__Gammaproteobacteria.o__Pseudomonadales.f__Moraxellaceae.g__Moraxella'
p161
(lp162
F0.0
aF0.0
aF3.624619971221998
aF0.0
aF7.412020157872428
aF0.0
aF0.0
aF3.820030567095217
aF0.0
aF0.0
aF4.709784486215498
aF0.0
aF12.404690943515584
aF0.0
aF0.0
aF101.11846181948522
asS'k__Bacteria.p__Firmicutes.c__Bacilli.o__Bacillales.f__Bacillaceae.g__Bacillus'
p163
(lp164
F0.0
aF0.0
aF0.0
aF0.0
aF0.0
aF0.0
aF0.0
aF0.0
aF0.0
aF0.0
aF0.0
aF0.0
aF0.0
aF0.0
aF0.0
aF0.0
asS'k__Bacteria.p__Firmicutes.c__Clostridia.o__Clostridiales.f__Ruminococcaceae.g__Ruminococcus'
p165
(lp166
F4851.321763392971
aF11368.696677902872
aF2377.750592345922
aF1684.425462908511
aF4343.4434159725715
aF5781.445649049166
aF3265.7297639580174
aF4637.517408452067
aF2738.256661624299
aF18032.510364047637
aF12787.061746700268
aF11159.661515649732
aF3452.638979278504
aF11615.418267489584
aF2295.2481504124908
aF8709.376424018616
asS'k__Bacteria.p__Tenericutes.c__Mollicutes'
p167
(lp168
F50.082470588097024
aF201.3529283179359
aF0.0
aF42.206564791904384
aF155.65241663205123
aF346.6630961135525
aF4.087271808626691
aF38.20030567095217
aF18.884527752994583
aF82.37982759952736
aF122.45437650746763
aF22.248129752241244
aF322.5220099309197
aF77.0433538628762
aF53.37785997545327
aF509.9886158932808
asS'k__Bacteria.p__Proteobacteria.c__Gammaproteobacteria.o__Enterobacteriales.f__Enterobacteriaceae.g__Erwinia'
p169
(lp170
F0.0
aF0.0
aF0.0
aF0.0
aF0.0
aF14.910241084673489
aF57.22180054013753
aF0.0
aF0.0
aF0.0
aF4.709784486215498
aF0.0
aF4.1348969811718606
aF4.531961711901307
aF0.0
aF26.3787158032435
asS'k__Bacteria.p__Fusobacteria.c__Fusobacteriia.o__Fusobacteriales'
p171
(lp172
F0.0
aF3.8721709596248544
aF0.0
aF0.0
aF0.0
aF0.0
aF0.0
aF0.0
aF3.7769063963840543
aF0.0
aF0.0
aF0.0
aF0.0
aF0.0
aF0.0
aF628.6930380278488
asS'k__Bacteria.p__Firmicutes.c__Clostridia.o__Clostridiales.f__Lachnospiraceae.g__Lachnospira'
p173
(lp174
F23.37181127165177
aF7.744344053552123
aF0.0
aF0.0
aF0.0
aF11.182681349099592
aF32.69816490774122
aF0.0
aF241.72200936857948
aF0.0
aF0.0
aF0.0
aF748.4164443911359
aF1373.184417748312
aF53.37785997545327
aF0.0
asS'k__Bacteria.p__Firmicutes.c__Erysipelotrichi.o__Erysipelotrichales.f__Erysipelotrichaceae.g__Coprobacillus'
p175
(lp176
F6.677662745079603
aF30.977371945603664
aF413.2067018213943
aF53.7174460987874
aF151.94640989474988
aF22.36535412868757
aF53.13452395087469
aF7.640061134190434
aF185.06838170587596
aF60.7009231703825
aF117.74457440388373
aF204.68279279580918
aF0.0
aF4.531961711901307
aF827.3568939200258
aF0.0
asS'k__Bacteria.p__Firmicutes.c__Clostridia.o__Clostridiales.f__Christensenellaceae'
p177
(lp178
F6.677662745079603
aF11.616515013176977
aF86.99088349300904
aF42.206564791904384
aF133.4163539306774
aF3.7275597355738963
aF302.45818076728136
aF0.0
aF75.53810678305263
aF78.04403748247526
aF188.3913291132816
aF182.4346561074912
aF111.64221849164025
aF194.8743488512022
aF244.01311091664363
aF87.92909209315921
asS'k__Bacteria.p__Actinobacteria.c__Actinobacteria.o__Bifidobacteriales.f__Bifidobacteriaceae'
p179
(lp180
F0.0
aF0.0
aF14.498479884887992
aF0.0
aF0.0
aF18.637800820247385
aF4.087271808626691
aF0.0
aF3.7769063963840543
aF0.0
aF28.258711950826825
aF0.0
aF4.1348969811718606
aF0.0
aF0.0
aF13.189362631503455
asS'k__Bacteria.p__Bacteroidetes.c__Bacteroidia.o__Bacteroidales.f__Prevotellaceae'
p181
(lp182
F7271.974612685912
aF48285.983135638686
aF38790.68045527861
aF100156.1648687922
aF60823.0319842306
aF24221.685591215723
aF7536.928421522019
aF54103.09534318581
aF61193.42485316052
aF44172.92978453645
aF7540.363042137857
aF15382.35660597462
aF39628.85234975451
aF3371.77971359784
aF21183.38655714674
aF1789.3570536575503
asS'k__Bacteria.p__Firmicutes.c__Clostridia.o__Clostridiales.f__Lachnospiraceae.g__Coprococcus'
p183
(lp184
F253.7511801449615
aF344.623292241499
aF79.74163099952177
aF1043.6530912001947
aF222.360582458607
aF402.5765028590505
aF2689.4246014832834
aF210.10168119023692
aF185.06838170587596
aF4197.035348224669
aF3084.9080708572424
aF827.6304119864105
aF847.6538811402316
aF3312.8640970898273
aF224.94957724912453
aF2215.8131207476117
asS'k__Bacteria.p__Firmicutes.c__Clostridia.o__Clostridiales.f__Lachnospiraceae.g__Clostridium'
p185
(lp186
F0.0
aF0.0
aF0.0
aF0.0
aF0.0
aF0.0
aF0.0
aF0.0
aF0.0
aF0.0
aF0.0
aF0.0
aF0.0
aF0.0
aF0.0
aF0.0
asS'k__Bacteria.p__Proteobacteria.c__Deltaproteobacteria'
p187
(lp188
F83.47078431349505
aF61.95474389120733
aF746.6716680512395
aF257.0763071040449
aF37.06008965057923
aF55.913406745497966
aF1500.0286199081836
aF1845.0748496208396
aF759.1580270884815
aF2393.350721269172
aF4163.448448906532
aF1681.9585695025978
aF930.3518207636687
aF3208.628982476651
aF1120.9351452185188
aF681.450469634336
asS'k__Bacteria.p__Firmicutes.c__Clostridia.o__Clostridiales.f__Lachnospiraceae.g__Anaerostipes'
p189
(lp190
F0.0
aF0.0
aF0.0
aF0.0
aF18.53004928080278
aF3.7275597355738963
aF0.0
aF3.820030567095217
aF0.0
aF4.3357808858289735
aF0.0
aF0.0
aF0.0
aF27.191760750299853
aF0.0
aF0.0
asS'k__Bacteria.p__Proteobacteria.c__Alphaproteobacteria.o__Sphingomonadales'
p191
(lp192
F3.3388313725398016
aF3.8721709596248544
aF0.0
aF0.0
aF0.0
aF0.0
aF4.087271808626691
aF0.0
aF0.0
aF0.0
aF0.0
aF0.0
aF4.1348969811718606
aF4.531961711901307
aF0.0
aF35.17163683726368
asS'k__Bacteria.p__Actinobacteria.c__Actinobacteria.o__Bifidobacteriales'
p193
(lp194
F0.0
aF0.0
aF14.498479884887992
aF0.0
aF0.0
aF18.637800820247385
aF4.087271808626691
aF0.0
aF3.7769063963840543
aF0.0
aF28.258711950826825
aF0.0
aF4.1348969811718606
aF0.0
aF0.0
aF13.189362631503455
asS'k__Bacteria.p__Firmicutes.c__Bacilli'
p195
(lp196
F5959.813854101327
aF22865.174895026852
aF1170.752112643229
aF1139.5771652154003
aF2879.5696408602503
aF3175.8811432247967
aF2713.94826101886
aF2123.9371238757153
aF12448.680945126429
aF7461.877829074168
aF14364.839033645243
aF58045.36917568648
aF28352.988327498366
aF19383.200889237232
aF6866.680853269452
aF33426.24427052919
asS'k__Bacteria.p__Proteobacteria.c__Alphaproteobacteria.o__RF32'
p197
(lp198
F3.3388313725398016
aF7.744344053552123
aF0.0
aF19.1848000739879
aF18.53004928080278
aF55.913406745497966
aF61.30907712940038
aF210.10168119023692
aF18.884527752994583
aF4.3357808858289735
aF447.4293122652845
aF0.0
aF0.0
aF9.063923423802613
aF26.688929987726635
aF320.9411565782704
asS'k__Archaea.p__Crenarchaeota.c__Thaumarchaeota.o__Cenarchaeales'
p199
(lp200
F0.0
aF0.0
aF0.0
aF0.0
aF3.7060089650579235
aF0.0
aF12.261815425880075
aF0.0
aF0.0
aF0.0
aF0.0
aF0.0
aF0.0
aF0.0
aF0.0
aF149.47944473366638
asS'k__Archaea'
p201
(lp202
F0.0
aF0.0
aF0.0
aF0.0
aF18.530044825289618
aF0.0
aF61.30907712940038
aF0.0
aF0.0
aF0.0
aF0.0
aF0.0
aF0.0
aF0.0
aF0.0
aF747.3972236683319
asS'k__Archaea.p__Crenarchaeota.c__Thaumarchaeota.o__Cenarchaeales.f__Cenarchaeaceae'
p203
(lp204
F0.0
aF0.0
aF0.0
aF0.0
aF3.7060089650579235
aF0.0
aF12.261815425880075
aF0.0
aF0.0
aF0.0
aF0.0
aF0.0
aF0.0
aF0.0
aF0.0
aF149.47944473366638
asS'k__Bacteria.p__Bacteroidetes.c__Bacteroidia.o__Bacteroidales.f__Prevotellaceae.g__Prevotella'
p205
(lp206
F7271.974612685912
aF48285.983135638686
aF38790.68045527861
aF100156.1648687922
aF60823.0319842306
aF24221.685591215723
aF7536.928421522019
aF54103.09534318581
aF61193.42485316052
aF44172.92978453645
aF7540.363042137857
aF15382.35660597462
aF39628.85234975451
aF3371.77971359784
aF21183.38655714674
aF1789.3570536575503
asS'k__Bacteria.p__Proteobacteria.c__Epsilonproteobacteria.o__Campylobacterales'
p207
(lp208
F23.37181127165177
aF3.8721709596248544
aF3.624619971221998
aF26.8587230493937
aF44.47212540274772
aF14.910241084673489
aF16.34908484418869
aF3.820030567095217
aF83.09191957582074
aF82.37982759952736
aF51.80762179806974
aF13.348877388939627
aF74.42814566109351
aF108.76709060673934
aF34.31434774143427
aF8.79290920931592
asS'k__Bacteria.p__Actinobacteria.c__Coriobacteriia.o__Coriobacteriales.f__Coriobacteriaceae'
p209
(lp210
F166.9415686269901
aF731.840473576081
aF1837.6822124501637
aF122.78271289858094
aF315.010817723838
aF454.76234344184087
aF707.0979655247838
aF309.42249736317495
aF1110.4102479459991
aF108.3944990676665
aF141.2935094187958
aF124.5895330862226
aF86.83283660460908
aF185.81044446961553
aF449.899133064749
aF2985.192658825699
asS'k__Bacteria.p__Bacteroidetes.c__Bacteroidia.o__Bacteroidales.f___Paraprevotellaceae_.g___Prevotella_'
p211
(lp212
F2437.346839433104
aF3539.1650809378484
aF10435.28023194284
aF2816.328581003629
aF1645.4683280157444
aF31173.585301452753
aF10406.193049513782
aF11502.112551806797
aF15251.144920338429
aF1968.4442590764947
aF734.7262087094675
aF2393.898712326215
aF115.77711547281211
aF131.42689916624587
aF6691.296545003179
aF35.17163683726368
asS'k__Bacteria.p__Firmicutes.c__Clostridia.o__Clostridiales.f__Lachnospiraceae.g__Blautia'
p213
(lp214
F148357.6293144623
aF43678.098711905994
aF37938.89490847028
aF12358.847837753356
aF46236.17756999237
aF69168.60562599044
aF51368.827300622834
aF36733.41556175075
aF24753.839552913407
aF8415.749577800427
aF1050.2815654277856
aF289.22561510634296
aF4325.102106107223
aF738.7096828710492
aF20600.04277414336
aF923.2554078546502
asS'k__Bacteria.p__Bacteroidetes.c__Bacteroidia.o__Bacteroidales.f__Bacteroidaceae.g__5_7N15'
p215
(lp216
F16.694156862699007
aF19.360859066729102
aF3.624619971221998
aF1116.5552342695978
aF581.8434587524953
aF957.9829184562064
aF257.4982099949324
aF3075.1257850770826
aF657.1816072476831
aF2787.9078527014926
aF197.81090815278029
aF120.13990112450783
aF1161.9061425083219
aF154.0867077257524
aF1700.466165761297
aF13.189362631503455
asS'k__Bacteria.p__Proteobacteria.c__Gammaproteobacteria.o__Pseudomonadales.f__Moraxellaceae'
p217
(lp218
F10.016494117619406
aF7.744344053552123
aF18.123097764269442
aF0.0
aF7.412020157872428
aF14.910241084673489
aF16.34908484418869
aF7.640061134190434
aF3.7769063963840543
aF4.3357808858289735
aF14.12935094187958
aF13.348877388939627
aF16.539587924687442
aF13.59588513570392
aF0.0
aF562.7461893962188
asS'k__Bacteria.p__Firmicutes.c__Bacilli.o__Lactobacillales.f__Streptococcaceae.g__Streptococcus'
p219
(lp220
F794.6418541602825
aF27.10519244876916
aF300.8434450603825
aF42.206564791904384
aF40.76609638788057
aF59.64095148442654
aF355.592609105433
aF114.6009170128565
aF33.992146995142264
aF147.41654088696197
aF164.84241926603872
aF48.945882218094916
aF62.02345471757792
aF31.723736743863142
aF41.93974406164184
aF615.5036446521144
asS'k__Bacteria.p__Tenericutes'
p221
(lp222
F50.082470588097024
aF201.3529283179359
aF0.0
aF42.206564791904384
aF155.65241663205123
aF346.6630961135525
aF4.087271808626691
aF38.20030567095217
aF18.884527752994583
aF82.37982759952736
aF122.45437650746763
aF22.248129752241244
aF322.5220099309197
aF77.0433538628762
aF53.37785997545327
aF509.9886158932808
asS'k__Bacteria.p__Firmicutes.c__Clostridia.o__Clostridiales.f__Veillonellaceae.g__Phascolarctobacterium'
p223
(lp224
F1422.3420563323066
aF7043.4805464041865
aF6788.912858853271
aF686.8157496453168
aF422.485124493406
aF324.29774198486496
aF1536.8141331147299
aF4270.794345440152
aF985.7723051483825
aF1018.9084850917511
aF1087.959831250442
aF511.70698198952294
aF533.4016197721412
aF1495.5473173218913
aF575.7183866831746
aF3886.4657522705943
asS'k__Bacteria.p__Proteobacteria.c__Epsilonproteobacteria.o__Campylobacterales.f__Helicobacteraceae'
p225
(lp226
F23.37181127165177
aF3.8721709596248544
aF3.624619971221998
aF26.8587230493937
aF44.47212540274772
aF14.910241084673489
aF16.34908484418869
aF3.820030567095217
aF83.09191957582074
aF82.37982759952736
aF51.80762179806974
aF13.348877388939627
aF74.42814566109351
aF108.76709060673934
aF34.31434774143427
aF8.79290920931592
asS'k__Bacteria.p__Firmicutes.c__Bacilli.o__Turicibacterales'
p227
(lp228
F3.3388313725398016
aF147.14252207737346
aF7.249239942443996
aF0.0
aF7.412020157872428
aF70.82364997254936
aF16.34908484418869
aF49.66039737223782
aF0.0
aF0.0
aF18.839132911328164
aF22.248129752241244
aF4.1348969811718606
aF9.063923423802613
aF11.438113770461417
aF61.55035264050718
asS'k__Bacteria.p__Actinobacteria.c__Coriobacteriia.o__Coriobacteriales.f__Coriobacteriaceae.g__Adlercreutzia'
p229
(lp230
F6.677662745079603
aF23.233034294958784
aF94.24011506809086
aF0.0
aF3.7060089650579235
aF22.36535412868757
aF16.34908484418869
aF15.280122268380868
aF11.330717074689318
aF4.3357808858289735
aF4.709784486215498
aF8.899252363301613
aF0.0
aF4.531961711901307
aF15.25081836061522
aF101.11846181948522
asS'k__Bacteria.p__Proteobacteria.c__Betaproteobacteria.o__Burkholderiales.f__Alcaligenaceae.g__Sutterella'
p231
(lp232
F3736.1522266788324
aF5854.723831294696
aF1098.2597968924113
aF2064.2843777036146
aF3887.604319953716
aF9039.333376396204
aF2570.8936999105645
aF2288.198502546197
aF3674.92923648126
aF845.477111190245
aF2237.1470646798057
aF1468.3764665428473
aF781.4954386424528
aF498.5156930980639
aF5638.9901167010285
aF4677.827699356069
asS'k__Bacteria.p__Proteobacteria.c__Betaproteobacteria.o__Burkholderiales.f__Oxalobacteraceae'
p233
(lp234
F53.421297792573405
aF7.744344053552123
aF94.24011506809086
aF11.510879202732559
aF44.47212540274772
aF29.820486454102788
aF44.959994675529764
aF7.640061134190434
aF49.099772580678476
aF52.02936601433611
aF155.42284022654005
aF120.13990112450783
aF28.94427886820303
aF18.127846847605227
aF122.00655545832181
aF87.92909209315921
asS'k__Bacteria.p__Firmicutes.c__Clostridia.o__Clostridiales.f__Veillonellaceae.g__Megamonas'
p235
(lp236
F6.677662745079603
aF6164.49712389025
aF60009.19453781214
aF22024.142800580652
aF37.06008965057923
aF29.820486454102788
aF155.31631916654197
aF7850.162922522983
aF13170.069273912215
aF771.7687945906483
aF98.90544149255555
aF40.046641414921226
aF16.539587924687442
aF13.59588513570392
aF37200.56142747533
aF219.82271840819377
asS'k__Bacteria.p__Bacteroidetes.c__Bacteroidia.o__Bacteroidales.f___Paraprevotellaceae_'
p237
(lp238
F2587.5942095167607
aF5316.491820327761
aF10475.150921932167
aF3457.1002583422955
aF16791.9290912595
aF34431.47285740956
aF12932.127543553781
aF14072.99269489263
aF15572.18153056619
aF6802.839115965718
aF9386.599325831474
aF15008.588076076721
aF15824.250474547625
aF10115.33937882122
aF7106.881373193492
aF5904.439036605571
asS'k__Bacteria.p__Bacteroidetes'
p239
(lp240
F20777.54607662753
aF67100.86715567468
aF58041.044523370496
aF112108.29452162197
aF91679.26755955593
aF78133.37910962087
aF42070.29134598315
aF85263.08054328825
aF90188.73351376905
aF74761.8530181385
aF56253.641561188306
aF64234.798772418086
aF78567.1739980844
aF39777.02311815602
aF47609.247766383734
aF48391.77444406742
asS'k__Bacteria.p__Actinobacteria.c__Coriobacteriia.o__Coriobacteriales'
p241
(lp242
F166.9415686269901
aF731.840473576081
aF1837.6822124501637
aF122.78271289858094
aF315.010817723838
aF454.76234344184087
aF707.0979655247838
aF309.42249736317495
aF1110.4102479459991
aF108.3944990676665
aF141.2935094187958
aF124.5895330862226
aF86.83283660460908
aF185.81044446961553
aF449.899133064749
aF2985.192658825699
asS'k__Bacteria.p__Cyanobacteria.c__4C0d_2.o__YS2'
p243
(lp244
F26.710659316445255
aF0.0
aF21.747715643650896
aF19.1848000739879
aF85.23822179062829
aF37.27559735573896
aF122.61815425880076
aF26.740213969666517
aF18.884527752994583
aF4.3357808858289735
aF80.0663085812274
aF13.348877388939627
aF0.0
aF0.0
aF0.0
aF0.0
asS'k__Bacteria.p__Verrucomicrobia.c__Verrucomicrobiae.o__Verrucomicrobiales'
p245
(lp246
F0.0
aF0.0
aF0.0
aF0.0
aF0.0
aF0.0
aF0.0
aF0.0
aF0.0
aF0.0
aF0.0
aF0.0
aF0.0
aF0.0
aF0.0
aF4.396453422187535
asS'k__Bacteria.p__Cyanobacteria.c__Chloroplast'
p247
(lp248
F56.76012499704978
aF151.01470157420795
aF213.85262432258986
aF19.1848000739879
aF200.12451975723314
aF1371.7420769558216
aF2068.1593726234764
aF118.42094757995172
aF15.10762347107337
aF26.014671468139134
aF386.20216176305445
aF71.19401890641291
aF128.18180641632767
aF18.127846847605227
aF15.25081836061522
aF1125.4923787924376
asS'k__Bacteria.p__Firmicutes.c__Bacilli.o__Lactobacillales.f__Enterococcaceae'
p249
(lp250
F0.0
aF7.744344053552123
aF3.624619971221998
aF0.0
aF0.0
aF3.7275597355738963
aF0.0
aF0.0
aF3.7769063963840543
aF4.3357808858289735
aF23.54891739754366
aF4.449625025638014
aF0.0
aF0.0
aF0.0
aF8.79290920931592
asS'k__Bacteria.p__Firmicutes.c__Clostridia.o__Clostridiales.f__Dehalobacteriaceae'
p251
(lp252
F0.0
aF0.0
aF0.0
aF0.0
aF0.0
aF0.0
aF0.0
aF0.0
aF0.0
aF0.0
aF65.93697777348314
aF0.0
aF0.0
aF27.191760750299853
aF0.0
aF101.11846181948522
asS'k__Bacteria.p__Firmicutes.c__Clostridia.o__Clostridiales.f__Ruminococcaceae.g__Oscillospira'
p253
(lp254
F260.4289387554998
aF3330.0677509401958
aF3182.4161757530323
aF2666.6870819311407
aF6778.291802805344
aF6877.3484298304365
aF5391.110961024813
aF668.5054563839751
aF5442.521007096429
aF19723.464586428126
aF9414.85682973418
aF8712.367404744988
aF12338.532501017804
aF30803.744688861763
aF7091.630580553078
aF24998.240704714597
asS'k__Bacteria.p__Proteobacteria.c__Gammaproteobacteria'
p255
(lp256
F13.355325490159206
aF23.233034294958784
aF28.99696813713817
aF0.0
aF14.824038087988274
aF48.45827442008275
aF143.05448939875345
aF19.100152835476084
aF56.65358537344659
aF13.007340349681137
aF263.7478607585943
aF44.496250256380144
aF24.80938188703117
aF18.127846847605227
aF3.812704590153805
aF989.2022564862804
asS'k__Bacteria.p__Firmicutes.c__Clostridia.o__Clostridiales.f__Clostridiaceae.g__Clostridium'
p257
(lp258
F53.421297792573405
aF2001.9129154330485
aF1293.9893422772966
aF0.0
aF1222.983114412075
aF1986.7896368514155
aF490.47247361611835
aF1764.8541648549149
aF0.0
aF550.6440755724367
aF4130.480111025804
aF2126.921118306911
aF537.5366075523419
aF2673.85798128825
aF15.25081836061522
aF2695.0274708228667
asS'k__Bacteria.p__Proteobacteria.c__Gammaproteobacteria.o__Pasteurellales.f__Pasteurellaceae'
p259
(lp260
F0.0
aF3.8721709596248544
aF0.0
aF0.0
aF3.7060089650579235
aF0.0
aF0.0
aF0.0
aF0.0
aF0.0
aF0.0
aF0.0
aF4.1348969811718606
aF0.0
aF0.0
aF202.2368999895619
asS'k__Bacteria.p__Proteobacteria.c__Gammaproteobacteria.o__Xanthomonadales.f__Xanthomonadaceae'
p261
(lp262
F3.3388313725398016
aF11.616515013176977
aF10.873859913665994
aF0.0
aF3.7060089650579235
aF11.182681349099592
aF69.4836064047453
aF3.820030567095217
aF45.32287675660866
aF8.671559463852162
aF174.2619731378682
aF4.449625025638014
aF0.0
aF0.0
aF0.0
aF153.87591707538073
asS'k__Bacteria.p__Firmicutes.c__Clostridia.o__Clostridiales.f__Veillonellaceae'
p263
(lp264
F1429.0197107412591
aF13207.978310585162
aF66798.11722831598
aF22710.965704337512
aF459.5451918664194
aF354.1181427438516
aF1692.1303088621873
aF12120.957482247759
aF14155.842213399452
aF1790.6772796823993
aF1186.86549925202
aF551.7535771639325
aF549.941343895372
aF1509.143221499811
aF37776.2770278035
aF4106.288659874056
asS'k__Bacteria.p__Firmicutes.c__Bacilli.o__Turicibacterales.f__Turicibacteraceae.g__Turicibacter'
p265
(lp266
F3.3388313725398016
aF147.14252207737346
aF7.249239942443996
aF0.0
aF7.412020157872428
aF70.82364997254936
aF16.34908484418869
aF49.66039737223782
aF0.0
aF0.0
aF18.839132911328164
aF22.248129752241244
aF4.1348969811718606
aF9.063923423802613
aF11.438113770461417
aF61.55035264050718
asS'k__Bacteria.p__Proteobacteria.c__Alphaproteobacteria.o__Rickettsiales.f__mitochondria'
p267
(lp268
F3.3388313725398016
aF23.233034294958784
aF50.74468378078906
aF3.836960435627671
aF37.06008965057923
aF167.74019881271488
aF392.3781223119793
aF15.280122268380868
aF11.330717074689318
aF0.0
aF61.22717566989924
aF26.69774552977691
aF8.269793962343721
aF0.0
aF0.0
aF149.47944473366638
asS'k__Bacteria.p__Bacteroidetes.c__Bacteroidia.o__Bacteroidales.f__RF16'
p269
(lp270
F40.065968134350776
aF11.616515013176977
aF0.0
aF34.532643920649036
aF678.1997230325934
aF902.0696402533827
aF28.61088831847838
aF133.7010698483326
aF15.10762347107337
aF160.42386508200264
aF94.1956645566408
aF66.74438694469815
aF785.6304264226536
aF54.38354530336967
aF95.31760403709511
aF101.11846181948522
asS'k__Bacteria.p__Tenericutes.c__Mollicutes.o__Mycoplasmatales'
p271
(lp272
F50.082470588097024
aF201.3529283179359
aF0.0
aF42.206564791904384
aF140.82836740528003
aF279.56703372748984
aF0.0
aF38.20030567095217
aF18.884527752994583
aF82.37982759952736
aF122.45437650746763
aF0.0
aF322.5220099309197
aF58.915497494163
aF53.37785997545327
aF479.2136405929995
asS'k__Bacteria.p__Bacteroidetes.c__Bacteroidia.o__Bacteroidales.f__Bacteroidaceae'
p273
(lp274
F80.13195710901866
aF170.37555637233223
aF18.123097764269442
aF2705.0558446272357
aF1752.942567952615
aF4719.09079234203
aF3208.507222419276
aF9488.956014378367
aF1786.4764611818018
aF6169.814912779002
aF3278.0083715410256
aF560.6527948468503
aF3568.4154591581137
aF1087.6709060673936
aF5082.335113650873
aF1411.2618985334445
asS'k__Bacteria.p__Actinobacteria.c__Actinobacteria.o__Actinomycetales.f__Micrococcaceae.g__Rothia'
p275
(lp276
F113.52027083441668
aF15.488688107104245
aF43.49543128730179
aF7.673920871255342
aF3.7060089650579235
aF3.7275597355738963
aF24.523635632396303
aF11.46009170128565
aF3.7769063963840543
aF4.3357808858289735
aF9.419566455664082
aF40.046641414921226
aF24.80938188703117
aF4.531961711901307
aF7.62540918030761
aF4.396453422187535
asS'k__Bacteria.p__Bacteroidetes.c__Bacteroidia.o__Bacteroidales.f__Bacteroidaceae.g__Bacteroides'
p277
(lp278
F63.437800246319654
aF151.01470157420795
aF14.498479884887992
aF1588.5014520178197
aF1171.0991092001198
aF3761.107231172452
aF2951.010207583382
aF6413.832372147527
aF1129.294853934119
aF3381.9093678832937
aF3080.198042244636
aF440.51300932362176
aF2406.510224640081
aF933.5841507361012
aF3381.869805229578
aF1398.0726234047527
asS'k__Bacteria.p__Proteobacteria.c__Gammaproteobacteria.o__Enterobacteriales.f__Enterobacteriaceae'
p279
(lp280
F0.0
aF0.0
aF0.0
aF0.0
aF0.0
aF22.36535412868757
aF57.22180054013753
aF7.640061134190434
aF7.553810678305263
aF0.0
aF75.35653164531266
aF26.69774552977691
aF4.1348969811718606
aF4.531961711901307
aF3.812704590153805
aF70.34327367452735
asS'k__Bacteria.p__Firmicutes.c__Clostridia.o__Clostridiales.f__Peptococcaceae.g__rc4_4'
p281
(lp282
F3.3388313725398016
aF534.3597460980037
aF10.873859913665994
aF61.39136697004274
aF1467.5798709598853
aF454.76234344184087
aF331.0690929889405
aF76.40061134190434
aF52.87666840474831
aF442.2496688170016
aF4441.325992820239
aF2251.5106282728775
aF537.5366075523419
aF706.9860651410357
aF152.50818360615222
aF1156.267590586804
asS'k__Bacteria.p__Proteobacteria.c__Alphaproteobacteria.o__Sphingomonadales.f__Sphingomonadaceae'
p283
(lp284
F3.3388313725398016
aF3.8721709596248544
aF0.0
aF0.0
aF0.0
aF0.0
aF4.087271808626691
aF0.0
aF0.0
aF0.0
aF0.0
aF0.0
aF4.1348969811718606
aF4.531961711901307
aF0.0
aF35.17163683726368
asS'k__Bacteria.p__Tenericutes.c__Mollicutes.o__Mycoplasmatales.f__Mycoplasmataceae'
p285
(lp286
F50.082470588097024
aF201.3529283179359
aF0.0
aF42.206564791904384
aF140.82836740528003
aF279.56703372748984
aF0.0
aF38.20030567095217
aF18.884527752994583
aF82.37982759952736
aF122.45437650746763
aF0.0
aF322.5220099309197
aF58.915497494163
aF53.37785997545327
aF479.2136405929995
asS'k__Bacteria.p__Bacteroidetes.c__Bacteroidia.o__Bacteroidales.f__S24_7'
p287
(lp288
F10741.020246200293
aF9103.476367719994
aF8749.83221726388
aF5310.351812086388
aF8071.690069994172
aF8573.389319960075
aF15167.863750436647
aF4366.295645329093
aF10718.859189983381
aF14550.879323545903
aF28621.352895752414
aF31814.824597774485
aF16105.423287669255
aF21395.39113715388
aF13085.201090306256
aF33857.09628967397
asS'k__Bacteria.p__Actinobacteria.c__Actinobacteria'
p289
(lp290
F113.52027083441668
aF15.488688107104245
aF57.99391535587087
aF7.673920871255342
aF3.7060089650579235
aF22.36535412868757
aF28.61088831847838
aF11.46009170128565
aF7.553810678305263
aF4.3357808858289735
aF37.67826582265633
aF40.046641414921226
aF28.94427886820303
aF4.531961711901307
aF7.62540918030761
aF17.58581841863184
asS'k__Bacteria.p__Proteobacteria.c__Alphaproteobacteria'
p291
(lp292
F13.355325490159206
aF34.84955144243818
aF50.74468378078906
aF34.532643920649036
aF59.2961523519531
aF234.83632547011467
aF474.1234150654285
aF225.38178203015536
aF30.215251171072435
aF4.3357808858289735
aF522.7858439105972
aF31.14737749149168
aF12.404690943515584
aF18.127846847605227
aF30.501628147830413
aF523.1781275160579
asS'k__Bacteria.p__Proteobacteria.c__Gammaproteobacteria.o__Enterobacteriales'
p293
(lp294
F0.0
aF0.0
aF0.0
aF0.0
aF0.0
aF22.36535412868757
aF57.22180054013753
aF7.640061134190434
aF7.553810678305263
aF0.0
aF75.35653164531266
aF26.69774552977691
aF4.1348969811718606
aF4.531961711901307
aF3.812704590153805
aF70.34327367452735
asS'k__Bacteria.p__Bacteroidetes.c__Bacteroidia.o__Bacteroidales.f___Paraprevotellaceae_.g__YRC22'
p295
(lp296
F46.74364338362065
aF50.33822674372794
aF0.0
aF103.59791072044258
aF359.48294312658567
aF439.85210021478946
aF1316.1013885199825
aF580.6446676269354
aF128.4147963324294
aF182.1027695111475
aF103.61524359613948
aF26.69774552977691
aF128.18180641632767
aF72.51137786931291
aF80.06678996317989
aF43.96453422187534
asS'k__Bacteria.p__Proteobacteria.c__Epsilonproteobacteria'
p297
(lp298
F23.37181127165177
aF3.8721709596248544
aF3.624619971221998
aF26.8587230493937
aF44.47212540274772
aF14.910241084673489
aF16.34908484418869
aF3.820030567095217
aF83.09191957582074
aF82.37982759952736
aF51.80762179806974
aF13.348877388939627
aF74.42814566109351
aF108.76709060673934
aF34.31434774143427
aF8.79290920931592
asS'k__Bacteria.p__Actinobacteria.c__Actinobacteria.o__Actinomycetales'
p299
(lp300
F113.52027083441668
aF15.488688107104245
aF43.49543128730179
aF7.673920871255342
aF3.7060089650579235
aF3.7275597355738963
aF24.523635632396303
aF11.46009170128565
aF3.7769063963840543
aF4.3357808858289735
aF9.419566455664082
aF40.046641414921226
aF24.80938188703117
aF4.531961711901307
aF7.62540918030761
aF4.396453422187535
asS'k__Bacteria.p__Verrucomicrobia.c__Verrucomicrobiae.o__Verrucomicrobiales.f__Verrucomicrobiaceae.g__Akkermansia'
p301
(lp302
F0.0
aF0.0
aF0.0
aF0.0
aF0.0
aF0.0
aF0.0
aF0.0
aF0.0
aF0.0
aF0.0
aF0.0
aF0.0
aF0.0
aF0.0
aF4.396453422187535
asS'k__Bacteria.p__Firmicutes.c__Bacilli.o__Bacillales.f__Bacillaceae'
p303
(lp304
F0.0
aF0.0
aF0.0
aF0.0
aF0.0
aF0.0
aF0.0
aF0.0
aF0.0
aF0.0
aF0.0
aF0.0
aF4.1348969811718606
aF0.0
aF0.0
aF0.0
asS'k__Archaea.p__Crenarchaeota.c__Thaumarchaeota'
p305
(lp306
F0.0
aF0.0
aF0.0
aF0.0
aF3.7060089650579235
aF0.0
aF12.261815425880075
aF0.0
aF0.0
aF0.0
aF0.0
aF0.0
aF0.0
aF0.0
aF0.0
aF149.47944473366638
asS'k__Bacteria.p__Proteobacteria.c__Gammaproteobacteria.o__Pasteurellales.f__Pasteurellaceae.g__Haemophilus'
p307
(lp308
F0.0
aF3.8721709596248544
aF0.0
aF0.0
aF3.7060089650579235
aF0.0
aF0.0
aF0.0
aF0.0
aF0.0
aF0.0
aF0.0
aF4.1348969811718606
aF0.0
aF0.0
aF202.2368999895619
asS'k__Bacteria.p__Proteobacteria.c__Betaproteobacteria.o__Burkholderiales.f__Oxalobacteraceae.g__Oxalobacter'
p309
(lp310
F53.421297792573405
aF7.744344053552123
aF94.24011506809086
aF11.510879202732559
aF44.47212540274772
aF29.820486454102788
aF44.959994675529764
aF7.640061134190434
aF49.099772580678476
aF52.02936601433611
aF155.42284022654005
aF120.13990112450783
aF28.94427886820303
aF18.127846847605227
aF122.00655545832181
aF87.92909209315921
asS'k__Bacteria.p__Tenericutes.c__Mollicutes.o__Mycoplasmatales.f__Mycoplasmataceae.g__Mycoplasma'
p311
(lp312
F50.082470588097024
aF201.3529283179359
aF0.0
aF42.206564791904384
aF140.82836740528003
aF279.56703372748984
aF0.0
aF38.20030567095217
aF18.884527752994583
aF82.37982759952736
aF122.45437650746763
aF0.0
aF322.5220099309197
aF58.915497494163
aF53.37785997545327
aF479.2136405929995
asS'k__Archaea.p__Crenarchaeota.c__Thaumarchaeota.o__Cenarchaeales.f__Cenarchaeaceae.g__Nitrosopumilus'
p313
(lp314
F0.0
aF0.0
aF0.0
aF0.0
aF3.7060089650579235
aF0.0
aF12.261815425880075
aF0.0
aF0.0
aF0.0
aF0.0
aF0.0
aF0.0
aF0.0
aF0.0
aF149.47944473366638
assS'subclass_sl'
p315
(dp316
g12
(I8
I16
tp317
sg10
(I0
I8
tp318
ssS'norm'
p319
F1000000.0
sS'cls'
p320
(dp321
S'class'
p322
(S'CR'
p323
S'CR'
p324
S'CR'
p325
S'CR'
p326
S'CR'
p327
S'CR'
p328
S'CR'
p329
g3
S'HA'
p330
S'HA'
p331
S'HA'
p332
S'HA'
p333
S'HA'
p334
S'HA'
p335
S'HA'
p336
g5
tp337
sS'subclass'
p338
(lp339
S'CR_subcl'
p340
aS'CR_subcl'
p341
aS'CR_subcl'
p342
aS'CR_subcl'
p343
aS'CR_subcl'
p344
aS'CR_subcl'
p345
aS'CR_subcl'
p346
ag10
aS'HA_subcl'
p347
aS'HA_subcl'
p348
aS'HA_subcl'
p349
aS'HA_subcl'
p350
aS'HA_subcl'
p351
aS'HA_subcl'
p352
aS'HA_subcl'
p353
ag12
ass.