(dp0
S'class_sl'
p1
(dp2
S'CR'
p3
(I0
I8
tp4
sS'HA'
p5
(I8
I16
tp6
ssS'class_hierarchy'
p7
(dp8
g3
(lp9
S'CR_subcl'
p10
asg5
(lp11
S'HA_subcl'
p12
assS'feats'
p13
(dp14
S'Carbohydrate_Metabolism'
p15
(lp16
F106366.77647526786
aF103514.72341446846
aF107514.62478172488
aF105060.0550710013
aF109265.3934910704
aF107559.15565452605
aF108530.79482828785
aF112909.92101319501
aF104811.58459634717
aF107155.62024786264
aF106931.42733590226
aF106972.05390743603
aF106747.96946804038
aF106145.41846500292
aF105244.7488866315
aF106146.2825690617
asS'Transcription'
p17
(lp18
F30894.14952725872
aF28363.469268201043
aF30507.100700901185
aF30540.247693222922
aF29500.988400459977
aF31032.470995521002
aF31886.396762882006
aF31185.884026167514
aF29706.909372095608
aF29794.34282053524
aF31660.56183671458
aF30549.779562001815
aF30965.070398787422
aF29342.13516839342
aF30038.556195205525
aF30886.62082001913
asS'Genetic_Information_Processing'
p19
(lp20
F26301.540813255833
aF26266.614179786637
aF26717.168565959753
aF26444.299620223712
aF26818.328816284287
aF26646.838512706767
aF26750.88656110761
aF25133.37885090668
aF25733.393675815267
aF25966.930210830888
aF25049.202114062624
aF25425.06781083543
aF24948.145974946536
aF25209.03919978272
aF24681.62474623834
aF24991.89817645947
asS'Membrane_Transport'
p21
(lp22
F140537.9841793018
aF116823.83844339133
aF133219.08652123297
aF134671.0964032734
aF143686.59733924706
aF139909.0888959279
aF146671.21850342
aF141242.78680979254
aF130738.59371916749
aF130322.95391169509
aF142165.19743152196
aF137743.7627554552
aF140584.04828701308
aF137149.27452464227
aF133572.07651521027
aF143325.80686515482
asS'Metabolism'
p23
(lp24
F23988.24447383699
aF22880.05333703339
aF24381.354472668154
aF24248.003009709377
aF23416.006009911514
aF24617.51599288381
aF24451.567162679545
aF25247.611963414343
aF23309.961740017552
aF24176.128740277796
aF24499.62501669718
aF24838.25406648535
aF24344.641258925418
aF22806.053307132606
aF23692.033792825023
aF24096.59347376307
asS'Neurodegenerative_Diseases'
p25
(lp26
F645.6029422876363
aF601.2182352622685
aF632.4893685079384
aF666.3222233656513
aF615.9424893081931
aF581.8819623810131
aF465.2022123177716
aF728.8861355362094
aF614.6463810995125
aF976.5081715620129
aF922.7862153495282
aF1011.1091856809428
aF906.2624962991035
aF623.5201518474012
aF825.0337515339997
aF1075.4413652240314
asS'Endocrine_System'
p27
(lp28
F2643.8354373544566
aF2975.577440711934
aF2650.683118247002
aF2756.8183637446514
aF2633.803623663086
aF2653.59769077525
aF2501.8567484909904
aF2499.7611418076003
aF2616.8540187290505
aF2662.6779604287403
aF2452.296955400775
aF2584.417848801801
aF2619.0495999688724
aF2425.547107865475
aF2421.694901417289
aF2642.7916875126775
asS'Folding__Sorting_and_Degradation'
p29
(lp30
F23131.069407928964
aF25111.144451096712
aF23781.548553267126
aF23675.48608753763
aF22879.729369397384
aF23456.64251416074
aF22985.659718664654
aF22834.755939279847
aF23900.031547348623
aF23323.208207649863
aF21702.109043547694
aF22614.230777166213
aF22384.64595525283
aF23136.774745524086
aF22997.41404010318
aF21775.51281654932
asS'Cardiovascular_Diseases'
p31
(lp32
F1.9093845217560739
aF0.24410988479526918
aF0.1661870293571788
aF0.27378416984721166
aF0.31418624123859756
aF0.9176019171273334
aF0.03258060806931902
aF1.0295987836773692
aF0.23203688845106962
aF0.26011605142663413
aF0.04668907462114034
aF1.3095538312681045
aF0.050271113371188655
aF0.12827983064881598
aF0.06743226412210868
aF0.5144757335593784
asS'Nucleotide_Metabolism'
p33
(lp34
F38825.30167928983
aF41299.70644809914
aF41002.47635292445
aF40516.891507923465
aF39457.23619906989
aF39382.097880229456
aF38637.611899421994
aF39226.108182038304
aF39434.06976363079
aF42087.72004151582
aF38124.430772638356
aF40147.07198195146
aF39563.36622312547
aF37324.07503587587
aF39220.133278071844
aF39121.553263976704
asS'Metabolism_of_Terpenoids_and_Polyketides'
p35
(lp36
F15431.24535001351
aF16615.388130566957
aF16128.340407761298
aF15719.215442713965
aF15853.24863369731
aF15710.140076214791
aF15413.266646041511
aF15775.669620946228
aF15470.03470788441
aF15373.281327897645
aF14191.914600826854
aF15288.13231004975
aF15272.238564383686
aF14482.167516076912
aF14510.838826122063
aF14299.128071203815
asS'Translation'
p37
(lp38
F56291.11942333262
aF59701.41748263244
aF57322.8735709462
aF56901.81315962093
aF54906.5002364546
aF55893.16678980884
aF54826.24000144918
aF53616.129799250055
aF56605.688983749
aF58740.122052303945
aF53371.1216027687
aF55332.92546522033
aF54473.04951787614
aF54112.74597697615
aF54954.98008511705
aF53740.0304541572
asS'Biosynthesis_of_Other_Secondary_Metabolites'
p39
(lp40
F9214.273948913462
aF9961.904699598621
aF9289.356379978222
aF9559.892973661244
aF9198.607314503117
aF9392.328529870818
aF9593.303029946865
aF9341.183296941088
aF10099.637606721257
aF9106.240271862893
aF9397.460217056574
aF8855.149555858135
aF8885.092526120681
aF10576.736176910203
aF10360.427924249021
aF9048.622587102964
asS'Metabolism_of_Cofactors_and_Vitamins'
p41
(lp42
F44366.643526671396
aF44787.35319414611
aF43765.0402723798
aF43702.935003946084
aF44822.45718422088
aF44305.52155330674
aF44666.93035781807
aF43045.71025955924
aF43580.433605399805
aF38824.434118342986
aF38737.52835602586
aF40004.27716316645
aF40702.585058786666
aF42884.86137969256
aF40627.624449671246
aF39308.91597203478
asS'Amino_Acid_Metabolism'
p43
(lp44
F97079.71494059358
aF94404.0787051279
aF95991.47467925488
aF94706.1366702513
aF95304.86168451463
aF96891.78867407623
aF97777.32078044859
aF94479.21279320116
aF94527.72903660314
aF90890.01080554593
aF92533.2170588619
aF92832.07960034769
aF92835.36343589386
aF94237.57059038644
aF91477.89023056866
aF92331.4866304828
asS'Transport_and_Catabolism'
p45
(lp46
F1957.411701783148
aF2273.4197680868215
aF2036.9728840564246
aF2395.3205904826395
aF1811.6567769019857
aF1919.3326366899578
aF1735.0558472755324
aF1980.8957073147321
aF2136.0155766363214
aF2895.0591378720096
aF2514.1366347364756
aF2695.4626685756575
aF2599.594679094222
aF1966.1609993332338
aF2644.603489183606
aF3008.6307045946282
asS'Metabolic_Diseases'
p47
(lp48
F910.3144690094805
aF1028.654643538785
aF943.8315353958708
aF911.9408467398312
aF935.8626294493951
aF882.0601362039347
aF836.5967088519565
aF888.8927668504093
aF937.3903565275795
aF1052.2019425271633
aF913.4717449626107
aF979.1988331394302
aF917.2467345707082
aF917.778048376954
aF927.3284962072386
aF938.2868117092245
asS'Cell_Motility'
p49
(lp50
F19084.113515804693
aF29445.99896331414
aF15547.812183765704
aF18710.940624187522
aF19572.703177320294
aF13359.641592031985
aF11221.689966403446
aF18706.378931616753
aF30050.014584485256
aF28028.414947399822
aF37123.440357298416
aF27482.938117113878
aF28335.96657614431
aF38529.215939885
aF38508.610504476725
aF34144.65532908697
asS'Signaling_Molecules_and_Interaction'
p51
(lp52
F1276.6237302034742
aF1462.5111417854168
aF1530.9703101147834
aF1455.5222044608545
aF1400.7011733619001
aF1367.9456446881431
aF1254.3126849086957
aF1567.6601276964254
aF1362.2112264667462
aF1732.7955910849516
aF1461.3213465670715
aF1593.2994032389915
aF1528.9456420713318
aF1224.655473246584
aF1475.8450099978445
aF1558.2534559088917
asS'Immune_System'
p53
(lp54
F866.3062354354574
aF978.9782819829476
aF839.0783112243957
aF896.2324799948474
aF836.3245008969919
aF849.2252809360616
aF814.9550399419113
aF825.3543063187262
aF895.0629607926302
aF854.3511709107798
aF846.1927884335474
aF812.9122221567742
aF881.9815485408194
aF864.5419186576953
aF873.023046167567
aF835.3916649973488
asS'Immune_System_Diseases'
p55
(lp56
F406.175362216788
aF531.4760411762601
aF436.480999993888
aF422.2094129256313
aF463.01233638530573
aF417.64651258050577
aF412.2587242051282
aF500.0185415035196
aF504.1001401599488
aF417.9739801361727
aF390.29731929542265
aF432.7674528515187
aF472.8500923694005
aF485.5391590057685
aF473.0148553952184
aF381.15636278565034
asS'Enzyme_Families'
p57
(lp58
F21798.734764824574
aF22578.18705349556
aF22675.259964061872
aF22836.406052998387
aF20850.086250996043
aF22311.964709274962
aF22164.57952440571
aF22717.625989516415
aF22474.37756829788
aF22735.801134515666
aF22157.771067312715
aF22110.800868603
aF22281.213139491607
aF21703.728687388502
aF22807.56973917807
aF22336.525218735205
asS'Glycan_Biosynthesis_and_Metabolism'
p59
(lp60
F17079.536936681714
aF23513.56731005407
aF20041.712575064143
aF21380.66139889953
aF20003.3739674981
aF18480.456730848637
aF17310.296986333662
aF18673.850590383285
aF20624.88887608389
aF22378.46670886833
aF18844.17740783845
aF20033.581236327856
aF20186.767743107775
aF19342.513914593408
aF21480.05323282749
aF20626.431265644445
asS'Digestive_System'
p61
(lp62
F135.73568192967574
aF706.0146088048775
aF311.7484018485833
aF381.05622989547226
aF308.27561257529646
aF172.24917321008593
aF47.80389718970833
aF316.9593679310518
aF404.3242781259888
aF447.7897825309507
aF264.330195967586
aF258.14245829017597
aF361.27335624204727
aF301.9386513896506
aF436.21931660592105
aF264.53406809198583
asS'Circulatory_System'
p63
(lp64
F5.82054313890158
aF0.8055626198243884
aF0.6647481174287152
aF1.3689208492360583
aF1.4727480058059261
aF2.8445659430947337
aF0.2687900165718819
aF3.1935013120840434
aF1.6242582191574875
aF1.7557833471297803
aF1.0505041789756575
aF9.247053584056411
aF1.1311000508517448
aF1.058308602852732
aF1.0114839618316303
aF3.765026959229996
asS'Cancers'
p65
(lp66
F896.8563877835546
aF1029.3381512162116
aF905.9962883788863
aF908.0907568513547
aF856.7662432175781
aF873.1593976077995
aF817.7243916278035
aF820.956697954545
aF911.6922711316236
aF888.1012285833856
aF898.3911738599824
aF898.27375148474
aF926.4463483176357
aF895.617707632371
aF881.6094211324489
aF866.8214552657035
asS'Energy_Metabolism'
p67
(lp68
F63227.6516204138
aF60438.58051273719
aF61793.04614749753
aF62237.90085296431
aF61250.4309997039
aF64896.84502768038
aF65344.685687828394
aF60448.98359840412
aF59810.814523923626
aF54016.18695685127
aF53728.829947978564
aF56411.32968247542
aF57186.28204874594
aF57885.455796357826
aF55478.906299924456
aF53396.57113148508
asS'Lipid_Metabolism'
p69
(lp70
F26987.487202696702
aF26361.792623868314
aF26670.433080259416
aF26172.671500714045
aF25381.142765658555
aF26193.39023199301
aF26202.01734726783
aF26238.120894965654
aF26623.332488654603
aF28330.27962508043
aF27599.592815242413
aF27856.241135790468
aF27249.40673173944
aF26362.62764684986
aF26963.30778991676
aF27884.210594748445
asS'Poorly_Characterized'
p71
(lp72
F47798.7314080034
aF47703.392233956474
aF48532.83535328436
aF48776.22411725738
aF47989.984685188036
aF48514.836827744955
aF48899.493442407336
aF47494.97307119283
aF47564.758353400495
aF47898.94023193183
aF46703.96843594448
aF47088.32197620546
aF47275.60853873964
aF46766.76940491404
aF47155.83184901808
aF47351.43449164115
asS'Metabolism_of_Other_Amino_Acids'
p73
(lp74
F13644.954536861615
aF14590.740746074995
aF13982.644276054309
aF13945.36780627388
aF13273.936686249044
aF13557.262458250641
aF13321.127334326242
aF13914.81815147754
aF14597.672689345241
aF14513.077545829767
aF14532.394677501521
aF14466.64117401875
aF13910.519780941613
aF14840.164453460095
aF15311.259801251494
aF14070.841157067149
asS'Replication_and_Repair'
p75
(lp76
F85575.48841786597
aF92397.03164332968
aF88133.1917395223
aF87689.08262008849
aF85523.20325283299
aF85338.84408340683
aF83002.16977890073
aF83272.76296760036
aF86765.68905336007
aF91127.59430401772
aF84320.53879939138
aF86366.09074449043
aF85830.3100076289
aF83165.86668691778
aF85489.81526683991
aF84766.37820635893
asS'Cellular_Processes_and_Signaling'
p77
(lp78
F40223.72566406662
aF40359.24870593689
aF40469.551480226946
aF39980.61676523524
aF39467.99707783232
aF40748.91181588648
aF40624.190040992675
aF41597.32653332781
aF40519.49965499015
aF37882.48886711428
aF39305.594326941275
aF39306.4987758077
aF39720.79021464735
aF40592.58098089237
aF39658.577859393794
aF38316.98337247168
asS'Xenobiotics_Biodegradation_and_Metabolism'
p79
(lp80
F15914.642997525514
aF14023.30731886839
aF17160.23260349099
aF16005.422569267994
aF16452.087609498078
aF16947.46508799986
aF16386.864811824955
aF17860.32794466343
aF14296.778854246317
aF17364.4371870621
aF16054.411821076073
aF18076.840556529376
aF16865.958536033795
aF13061.25993691647
aF14175.363312114572
aF16721.70075949246
asS'Nervous_System'
p81
(lp82
F1139.9795507997371
aF1069.762748138308
aF1115.8166455550668
aF1130.6601754265223
aF1011.8956998291357
aF1152.553888007787
aF1185.0951830654274
aF998.3269019765243
aF1049.4255008347043
aF971.3058505334802
aF973.5372394627077
aF992.9090599851555
aF1015.1999989744693
aF962.3873594850797
aF965.6075448072222
aF965.7177224121858
asS'Cell_Communication'
p83
(lp84
F0.046194786816679205
aF0.0
aF0.0
aF0.01711151061545073
aF0.0
aF0.0
aF0.0
aF0.0
aF0.0
aF0.0
aF0.0
aF0.9086700053697052
aF0.0
aF0.0
aF0.0
aF0.0
asS'Infectious_Diseases'
p85
(lp86
F3455.169876478066
aF3728.6320243168598
aF3635.304336737318
aF3593.4001177340374
aF3431.0315741659497
aF3564.470527176983
aF3538.050407527612
aF3601.3096845544915
aF3595.237558882986
aF3542.5205043793303
aF3280.4210719559414
aF3401.579439513098
aF3331.919123129013
aF3450.0539753422436
aF3495.4862752977474
aF3218.817427014251
asS'Cell_Growth_and_Death'
p87
(lp88
F5197.005906450044
aF5331.994569629147
aF5081.666983683813
aF5116.991911423155
aF5207.028212687354
aF5009.173572232828
aF4885.649518490785
aF4928.63702498304
aF4983.591608115219
aF5208.076096170497
aF4766.931174281118
aF4966.229011994551
aF5028.518928293259
aF4796.751672472345
aF4872.925134520062
aF4865.373627010425
asS'Sensory_System'
p89
(lp90
F0.0
aF0.0
aF0.0
aF0.0
aF0.0
aF0.0
aF0.0
aF0.0
aF0.0
aF0.0
aF0.0
aF0.0
aF0.0
aF0.0
aF0.0
aF0.0
asS'Environmental_Adaptation'
p91
(lp92
F1589.9013761319204
aF1843.2493291005983
aF1403.0986236371764
aF1442.9965786903444
aF1521.898515919689
aF1361.79771184339
aF1283.4723291307362
aF1452.833687076136
aF1839.6851336769346
aF1655.9312978883813
aF1907.13197558703
aF1673.1287357695594
aF1733.0212268016721
aF2029.3388159277756
aF1948.837387971689
aF1820.72962106664
asS'Signal_Transduction'
p93
(lp94
F15044.90294960335
aF15205.433846977961
aF13722.85701871807
aF14376.338312634622
aF14030.811341392826
aF13975.994799766415
aF13531.695804278252
aF13815.173930209781
aF16845.588055437092
aF16463.200097881672
aF19514.165628651815
aF17641.641075134074
aF17001.71567769269
aF19347.260268327413
aF19260.070710820804
aF18719.52695920661
asS'Excretory_System'
p95
(lp96
F63.27145967657829
aF91.15063098255352
aF125.00957652756671
aF63.073028128551385
aF58.30118438983726
aF68.77426368869364
aF21.657959214079817
aF106.58965035087068
aF56.423636708351765
aF192.81102311999254
aF158.97629908498286
aF245.39435262660686
aF125.75319009802843
aF50.686568085113414
aF89.97711776026702
aF146.06433780963079
assS'subclass_sl'
p97
(dp98
g12
(I8
I16
tp99
sg10
(I0
I8
tp100
ssS'norm'
p101
F1000000.0
sS'cls'
p102
(dp103
S'class'
p104
(S'CR'
p105
S'CR'
p106
S'CR'
p107
S'CR'
p108
S'CR'
p109
S'CR'
p110
S'CR'
p111
g3
S'HA'
p112
S'HA'
p113
S'HA'
p114
S'HA'
p115
S'HA'
p116
S'HA'
p117
S'HA'
p118
g5
tp119
sS'subclass'
p120
(lp121
S'CR_subcl'
p122
aS'CR_subcl'
p123
aS'CR_subcl'
p124
aS'CR_subcl'
p125
aS'CR_subcl'
p126
aS'CR_subcl'
p127
aS'CR_subcl'
p128
ag10
aS'HA_subcl'
p129
aS'HA_subcl'
p130
aS'HA_subcl'
p131
aS'HA_subcl'
p132
aS'HA_subcl'
p133
aS'HA_subcl'
p134
aS'HA_subcl'
p135
ag12
ass.